; Function Attrs: mustprogress nounwind uwtable
define noundef ptr @_ZNK19OpenColorIO_v2_5dev13ColorSpaceSet24getColorSpaceNameByIndexEi(ptr noundef nonnull readonly align 8 captures(none) dereferenceable(8) %0, i32 noundef %1) local_unnamed_addr #3 align 2 {
  %3 = icmp slt i32 %1, 0
  br i1 %3, label %_ZNK19OpenColorIO_v2_5dev13ColorSpaceSet4Impl7getNameEi.exit, label %4

4:                                                ; preds = %2
  %5 = load ptr, ptr %0, align 8, !tbaa !22
  %6 = getelementptr inbounds nuw i8, ptr %5, i64 8
  %7 = load ptr, ptr %6, align 8, !tbaa !28
  %8 = load ptr, ptr %5, align 8, !tbaa !25
  %9 = ptrtoint ptr %7 to i64
  %10 = ptrtoint ptr %8 to i64
  %11 = sub i64 %9, %10
  %12 = lshr exact i64 %11, 4
  %13 = trunc i64 %12 to i32
  %.not.i = icmp slt i32 %1, %13
  br i1 %.not.i, label %14, label %_ZNK19OpenColorIO_v2_5dev13ColorSpaceSet4Impl7getNameEi.exit

14:                                               ; preds = %4
  %15 = zext nneg i32 %1 to i64
  %16 = getelementptr inbounds nuw %"class.std::shared_ptr.6", ptr %8, i64 %15
  %17 = load ptr, ptr %16, align 8, !tbaa !36
  %18 = tail call noundef ptr @_ZNK19OpenColorIO_v2_5dev10ColorSpace7getNameEv(ptr noundef nonnull align 8 dereferenceable(8) %17) #23
  br label %_ZNK19OpenColorIO_v2_5dev13ColorSpaceSet4Impl7getNameEi.exit

_ZNK19OpenColorIO_v2_5dev13ColorSpaceSet4Impl7getNameEi.exit: ; preds = %2, %4, %14
  %.0.i = phi ptr [ %18, %14 ], [ null, %4 ], [ null, %2 ]
  ret ptr %.0.i
}